; Function Attrs: mustprogress nounwind uwtable
define dso_local void @_ZN4llvm6object13TapiUniversalD2Ev(ptr noundef nonnull align 8 dereferenceable(80) %0) unnamed_addr #0 align 2 {
  store ptr getelementptr inbounds inrange(-16, 24) (i8, ptr @_ZTVN4llvm6object13TapiUniversalE, i64 16), ptr %0, align 8
  %2 = getelementptr inbounds nuw i8, ptr %0, i64 56
  %3 = load ptr, ptr %2, align 8
  %.not.i.i.i = icmp eq ptr %3, null
  br i1 %.not.i.i.i, label %_ZNSt6vectorIN4llvm6object13TapiUniversal7LibraryESaIS3_EED2Ev.exit, label %4

4:                                                ; preds = %1
  %5 = getelementptr inbounds i8, ptr %0, i64 72
  %6 = load ptr, ptr %5, align 8
  %7 = ptrtoint ptr %6 to i64
  %8 = ptrtoint ptr %3 to i64
  %9 = sub i64 %7, %8
  tail call void @_ZdlPvm(ptr noundef nonnull %3, i64 noundef %9) #11
  br label %_ZNSt6vectorIN4llvm6object13TapiUniversal7LibraryESaIS3_EED2Ev.exit

_ZNSt6vectorIN4llvm6object13TapiUniversal7LibraryESaIS3_EED2Ev.exit: ; preds = %1, %4
  %10 = getelementptr inbounds nuw i8, ptr %0, i64 48
  %11 = load ptr, ptr %10, align 8
  %.not.i = icmp eq ptr %11, null
  br i1 %.not.i, label %_ZNSt10unique_ptrIN4llvm5MachO13InterfaceFileESt14default_deleteIS2_EED2Ev.exit, label %_ZNKSt14default_deleteIN4llvm5MachO13InterfaceFileEEclEPS2_.exit.i

_ZNKSt14default_deleteIN4llvm5MachO13InterfaceFileEEclEPS2_.exit.i: ; preds = %_ZNSt6vectorIN4llvm6object13TapiUniversal7LibraryESaIS3_EED2Ev.exit
  tail call void @_ZN4llvm5MachO13InterfaceFileD2Ev(ptr noundef nonnull align 8 dereferenceable(464) %11) #10
  tail call void @_ZdlPvm(ptr noundef nonnull %11, i64 noundef 464) #11
  br label %_ZNSt10unique_ptrIN4llvm5MachO13InterfaceFileESt14default_deleteIS2_EED2Ev.exit

_ZNSt10unique_ptrIN4llvm5MachO13InterfaceFileESt14default_deleteIS2_EED2Ev.exit: ; preds = %_ZNSt6vectorIN4llvm6object13TapiUniversal7LibraryESaIS3_EED2Ev.exit, %_ZNKSt14default_deleteIN4llvm5MachO13InterfaceFileEEclEPS2_.exit.i
  store ptr null, ptr %10, align 8
  tail call void @_ZN4llvm6object6BinaryD2Ev(ptr noundef nonnull align 8 dereferenceable(48) %0) #10
  ret void
}